target datalayout = "e-m:e-p270:32:32-p271:32:32-p272:64:64-i64:64-i128:128-f80:128-n8:16:32:64-S128"
target triple = "x86_64-pc-linux-gnu"

%struct.cJSON = type { ptr, ptr, ptr, i32, ptr, i32, double, ptr }

; Function Attrs: nounwind sspstrong uwtable
define i32 @cJSON_IsNull(ptr noundef %0) #0 {
  %2 = alloca i32, align 4
  %3 = alloca ptr, align 8
  store ptr %0, ptr %3, align 8, !tbaa !11
  %4 = load ptr, ptr %3, align 8, !tbaa !11
  %5 = icmp eq ptr %4, null
  br i1 %5, label %6, label %7

6:                                                ; preds = %1
  store i32 0, ptr %2, align 4
  br label %14

7:                                                ; preds = %1
  %8 = load ptr, ptr %3, align 8, !tbaa !11
  %9 = getelementptr inbounds nuw %struct.cJSON, ptr %8, i32 0, i32 3
  %10 = load i32, ptr %9, align 8, !tbaa !17
  %11 = and i32 %10, 255
  %12 = icmp eq i32 %11, 4
  %13 = zext i1 %12 to i32
  store i32 %13, ptr %2, align 4
  br label %14

14:                                               ; preds = %7, %6
  %15 = load i32, ptr %2, align 4
  ret i32 %15
}